target datalayout = "e-m:e-p270:32:32-p271:32:32-p272:64:64-i64:64-i128:128-f80:128-n8:16:32:64-S128"
target triple = "x86_64-pc-linux-gnu"

%class.symbol = type { ptr }

@_ZL15g_symbol_tables = internal global ptr null, align 8

; Function Attrs: mustprogress uwtable
define hidden void @_ZN6symbolC2EPKc(ptr noundef nonnull align 8 dereferenceable(8) %0, ptr noundef %1) unnamed_addr #5 align 2 {
  %3 = alloca ptr, align 8
  %4 = alloca ptr, align 8
  store ptr %0, ptr %3, align 8, !tbaa !3
  store ptr %1, ptr %4, align 8, !tbaa !27
  %5 = load ptr, ptr %3, align 8
  %6 = getelementptr inbounds nuw %class.symbol, ptr %5, i32 0, i32 0
  store ptr null, ptr %6, align 8, !tbaa !9
  %7 = load ptr, ptr %4, align 8, !tbaa !27
  %8 = icmp eq ptr %7, null
  br i1 %8, label %9, label %11

9:                                                ; preds = %2
  %10 = getelementptr inbounds nuw %class.symbol, ptr %5, i32 0, i32 0
  store ptr null, ptr %10, align 8, !tbaa !9
  br label %16

11:                                               ; preds = %2
  %12 = load ptr, ptr @_ZL15g_symbol_tables, align 8, !tbaa !12
  %13 = load ptr, ptr %4, align 8, !tbaa !27
  %14 = call noundef ptr @_ZN22internal_symbol_tables7get_strEPKc(ptr noundef nonnull align 8 dereferenceable(16) %12, ptr noundef %13)
  %15 = getelementptr inbounds nuw %class.symbol, ptr %5, i32 0, i32 0
  store ptr %14, ptr %15, align 8, !tbaa !9
  br label %16

16:                                               ; preds = %11, %9
  ret void
}