; Function Attrs: mustprogress uwtable
define hidden void @_ZN6symbolC2EPKc(ptr noundef nonnull writeonly align 8 captures(none) dereferenceable(8) initializes((0, 8)) %0, ptr noundef %1) unnamed_addr #3 align 2 {
  store ptr null, ptr %0, align 8, !tbaa !34
  %3 = icmp eq ptr %1, null
  br i1 %3, label %7, label %4

4:                                                ; preds = %2
  %5 = load ptr, ptr @_ZL15g_symbol_tables, align 8, !tbaa !3
  %6 = tail call noundef ptr @_ZN22internal_symbol_tables7get_strEPKc(ptr noundef nonnull align 8 dereferenceable(16) %5, ptr noundef nonnull %1)
  br label %7

7:                                                ; preds = %2, %4
  %storemerge = phi ptr [ %6, %4 ], [ null, %2 ]
  store ptr %storemerge, ptr %0, align 8, !tbaa !34
  ret void
}